; ModuleID = '47/1087.cpp'
source_filename = "47/1087.cpp"
target datalayout = "e-m:e-p270:32:32-p271:32:32-p272:64:64-i64:64-f80:128-n8:16:32:64-S128"
target triple = "x86_64-pc-linux-gnu"

%"class.std::ios_base::Init" = type { i8 }
%"class.std::basic_istream" = type { i32 (...)**, i64, %"class.std::basic_ios" }
%"class.std::basic_ios" = type { %"class.std::ios_base", %"class.std::basic_ostream"*, i8, i8, %"class.std::basic_streambuf"*, %"class.std::ctype"*, %"class.std::num_put"*, %"class.std::num_get"* }
%"class.std::ios_base" = type { i32 (...)**, i64, i64, i32, i32, i32, %"struct.std::ios_base::_Callback_list"*, %"struct.std::ios_base::_Words", [8 x %"struct.std::ios_base::_Words"], i32, %"struct.std::ios_base::_Words"*, %"class.std::locale" }
%"struct.std::ios_base::_Callback_list" = type { %"struct.std::ios_base::_Callback_list"*, void (i32, %"class.std::ios_base"*, i32)*, i32, i32 }
%"struct.std::ios_base::_Words" = type { i8*, i64 }
%"class.std::locale" = type { %"class.std::locale::_Impl"* }
%"class.std::locale::_Impl" = type { i32, %"class.std::locale::facet"**, i64, %"class.std::locale::facet"**, i8** }
%"class.std::locale::facet" = type <{ i32 (...)**, i32, [4 x i8] }>
%"class.std::basic_ostream" = type { i32 (...)**, %"class.std::basic_ios" }
%"class.std::basic_streambuf" = type { i32 (...)**, i8*, i8*, i8*, i8*, i8*, i8*, %"class.std::locale" }
%"class.std::ctype" = type <{ %"class.std::locale::facet.base", [4 x i8], %struct.__locale_struct*, i8, [7 x i8], i32*, i32*, i16*, i8, [256 x i8], [256 x i8], i8, [6 x i8] }>
%"class.std::locale::facet.base" = type <{ i32 (...)**, i32 }>
%struct.__locale_struct = type { [13 x %struct.__locale_data*], i16*, i32*, i32*, [13 x i8*] }
%struct.__locale_data = type opaque
%"class.std::num_put" = type { %"class.std::locale::facet.base", [4 x i8] }
%"class.std::num_get" = type { %"class.std::locale::facet.base", [4 x i8] }

@_ZStL8__ioinit = internal global %"class.std::ios_base::Init" zeroinitializer, align 1
@__dso_handle = external hidden global i8
@_ZSt3cin = external dso_local global %"class.std::basic_istream", align 8
@_ZSt4cout = external dso_local global %"class.std::basic_ostream", align 8
@.str = private unnamed_addr constant [2 x i8] c" \00", align 1
@llvm.global_ctors = appending global [1 x { i32, void ()*, i8* }] [{ i32, void ()*, i8* } { i32 65535, void ()* @_GLOBAL__sub_I_1087.cpp, i8* null }]

; Function Attrs: noinline uwtable
define internal void @__cxx_global_var_init() #0 section ".text.startup" {
  call void @_ZNSt8ios_base4InitC1Ev(%"class.std::ios_base::Init"* @_ZStL8__ioinit)
  %1 = call i32 @__cxa_atexit(void (i8*)* bitcast (void (%"class.std::ios_base::Init"*)* @_ZNSt8ios_base4InitD1Ev to void (i8*)*), i8* getelementptr inbounds (%"class.std::ios_base::Init", %"class.std::ios_base::Init"* @_ZStL8__ioinit, i32 0, i32 0), i8* @__dso_handle) #3
  ret void
}

declare dso_local void @_ZNSt8ios_base4InitC1Ev(%"class.std::ios_base::Init"*) unnamed_addr #1

; Function Attrs: nounwind
declare dso_local void @_ZNSt8ios_base4InitD1Ev(%"class.std::ios_base::Init"*) unnamed_addr #2

; Function Attrs: nounwind
declare dso_local i32 @__cxa_atexit(void (i8*)*, i8*, i8*) #3

; Function Attrs: noinline norecurse uwtable
define dso_local i32 @main() #4 {
  %1 = alloca i32, align 4
  %2 = alloca i32, align 4
  %3 = alloca i32, align 4
  %4 = alloca i32, align 4
  %5 = alloca i32, align 4
  %6 = alloca i32, align 4
  %7 = alloca [100 x i32], align 16
  store i32 0, i32* %1, align 4
  store i32 0, i32* %2, align 4
  store i32 0, i32* %3, align 4
  store i32 0, i32* %4, align 4
  store i32 0, i32* %5, align 4
  store i32 0, i32* %6, align 4
  %8 = call dereferenceable(280) %"class.std::basic_istream"* @_ZNSirsERi(%"class.std::basic_istream"* @_ZSt3cin, i32* dereferenceable(4) %2)
  store i32 1, i32* %4, align 4
  br label %9

9:                                                ; preds = %18, %0
  %10 = load i32, i32* %4, align 4
  %11 = load i32, i32* %2, align 4
  %12 = icmp sle i32 %10, %11
  br i1 %12, label %13, label %21

13:                                               ; preds = %9
  %14 = load i32, i32* %4, align 4
  %15 = sext i32 %14 to i64
  %16 = getelementptr inbounds [100 x i32], [100 x i32]* %7, i64 0, i64 %15
  %17 = call dereferenceable(280) %"class.std::basic_istream"* @_ZNSirsERi(%"class.std::basic_istream"* @_ZSt3cin, i32* dereferenceable(4) %16)
  br label %18

18:                                               ; preds = %13
  %19 = load i32, i32* %4, align 4
  %20 = add nsw i32 %19, 1
  store i32 %20, i32* %4, align 4
  br label %9

21:                                               ; preds = %9
  store i32 1, i32* %6, align 4
  br label %22

22:                                               ; preds = %55, %21
  %23 = load i32, i32* %6, align 4
  %24 = load i32, i32* %2, align 4
  %25 = icmp sle i32 %23, %24
  br i1 %25, label %26, label %58

26:                                               ; preds = %22
  store i32 1, i32* %5, align 4
  br label %27

27:                                               ; preds = %51, %26
  %28 = load i32, i32* %5, align 4
  %29 = load i32, i32* %2, align 4
  %30 = load i32, i32* %6, align 4
  %31 = sub nsw i32 %29, %30
  %32 = icmp sle i32 %28, %31
  br i1 %32, label %33, label %54

33:                                               ; preds = %27
  %34 = load i32, i32* %5, align 4
  %35 = sext i32 %34 to i64
  %36 = getelementptr inbounds [100 x i32], [100 x i32]* %7, i64 0, i64 %35
  %37 = load i32, i32* %36, align 4
  store i32 %37, i32* %3, align 4
  %38 = load i32, i32* %5, align 4
  %39 = add nsw i32 %38, 1
  %40 = sext i32 %39 to i64
  %41 = getelementptr inbounds [100 x i32], [100 x i32]* %7, i64 0, i64 %40
  %42 = load i32, i32* %41, align 4
  %43 = load i32, i32* %5, align 4
  %44 = sext i32 %43 to i64
  %45 = getelementptr inbounds [100 x i32], [100 x i32]* %7, i64 0, i64 %44
  store i32 %42, i32* %45, align 4
  %46 = load i32, i32* %3, align 4
  %47 = load i32, i32* %5, align 4
  %48 = add nsw i32 %47, 1
  %49 = sext i32 %48 to i64
  %50 = getelementptr inbounds [100 x i32], [100 x i32]* %7, i64 0, i64 %49
  store i32 %46, i32* %50, align 4
  br label %51

51:                                               ; preds = %33
  %52 = load i32, i32* %5, align 4
  %53 = add nsw i32 %52, 1
  store i32 %53, i32* %5, align 4
  br label %27

54:                                               ; preds = %27
  br label %55

55:                                               ; preds = %54
  %56 = load i32, i32* %6, align 4
  %57 = add nsw i32 %56, 1
  store i32 %57, i32* %6, align 4
  br label %22

58:                                               ; preds = %22
  store i32 1, i32* %4, align 4
  br label %59

59:                                               ; preds = %70, %58
  %60 = load i32, i32* %4, align 4
  %61 = load i32, i32* %2, align 4
  %62 = icmp slt i32 %60, %61
  br i1 %62, label %63, label %73

63:                                               ; preds = %59
  %64 = load i32, i32* %4, align 4
  %65 = sext i32 %64 to i64
  %66 = getelementptr inbounds [100 x i32], [100 x i32]* %7, i64 0, i64 %65
  %67 = load i32, i32* %66, align 4
  %68 = call dereferenceable(272) %"class.std::basic_ostream"* @_ZNSolsEi(%"class.std::basic_ostream"* @_ZSt4cout, i32 %67)
  %69 = call dereferenceable(272) %"class.std::basic_ostream"* @_ZStlsISt11char_traitsIcEERSt13basic_ostreamIcT_ES5_PKc(%"class.std::basic_ostream"* dereferenceable(272) %68, i8* getelementptr inbounds ([2 x i8], [2 x i8]* @.str, i64 0, i64 0))
  br label %70

70:                                               ; preds = %63
  %71 = load i32, i32* %4, align 4
  %72 = add nsw i32 %71, 1
  store i32 %72, i32* %4, align 4
  br label %59

73:                                               ; preds = %59
  %74 = load i32, i32* %2, align 4
  %75 = sext i32 %74 to i64
  %76 = getelementptr inbounds [100 x i32], [100 x i32]* %7, i64 0, i64 %75
  %77 = load i32, i32* %76, align 4
  %78 = call dereferenceable(272) %"class.std::basic_ostream"* @_ZNSolsEi(%"class.std::basic_ostream"* @_ZSt4cout, i32 %77)
  %79 = call dereferenceable(272) %"class.std::basic_ostream"* @_ZNSolsEPFRSoS_E(%"class.std::basic_ostream"* %78, %"class.std::basic_ostream"* (%"class.std::basic_ostream"*)* @_ZSt4endlIcSt11char_traitsIcEERSt13basic_ostreamIT_T0_ES6_)
  ret i32 0
}

declare dso_local dereferenceable(280) %"class.std::basic_istream"* @_ZNSirsERi(%"class.std::basic_istream"*, i32* dereferenceable(4)) #1

declare dso_local dereferenceable(272) %"class.std::basic_ostream"* @_ZStlsISt11char_traitsIcEERSt13basic_ostreamIcT_ES5_PKc(%"class.std::basic_ostream"* dereferenceable(272), i8*) #1

declare dso_local dereferenceable(272) %"class.std::basic_ostream"* @_ZNSolsEi(%"class.std::basic_ostream"*, i32) #1

declare dso_local dereferenceable(272) %"class.std::basic_ostream"* @_ZNSolsEPFRSoS_E(%"class.std::basic_ostream"*, %"class.std::basic_ostream"* (%"class.std::basic_ostream"*)*) #1

declare dso_local dereferenceable(272) %"class.std::basic_ostream"* @_ZSt4endlIcSt11char_traitsIcEERSt13basic_ostreamIT_T0_ES6_(%"class.std::basic_ostream"* dereferenceable(272)) #1

; Function Attrs: noinline uwtable
define internal void @_GLOBAL__sub_I_1087.cpp() #0 section ".text.startup" {
  call void @__cxx_global_var_init()
  ret void
}


!llvm.module.flags = !{!0}
!llvm.ident = !{!1}

!0 = !{i32 1, !"wchar_size", i32 4}
!1 = !{!"clang version 10.0.0-4ubuntu1 "}
