; ModuleID = 'source-C-CXX/46/1087.cpp'
source_filename = "source-C-CXX/46/1087.cpp"
target datalayout = "e-m:e-p270:32:32-p271:32:32-p272:64:64-i64:64-f80:128-n8:16:32:64-S128"
target triple = "x86_64-pc-linux-gnu"

%"class.std::ios_base::Init" = type { i8 }
%"class.std::basic_istream" = type { i32 (...)**, i64, %"class.std::basic_ios" }
%"class.std::basic_ios" = type { %"class.std::ios_base", %"class.std::basic_ostream"*, i8, i8, %"class.std::basic_streambuf"*, %"class.std::ctype"*, %"class.std::num_put"*, %"class.std::num_get"* }
%"class.std::ios_base" = type { i32 (...)**, i64, i64, i32, i32, i32, %"struct.std::ios_base::_Callback_list"*, %"struct.std::ios_base::_Words", [8 x %"struct.std::ios_base::_Words"], i32, %"struct.std::ios_base::_Words"*, %"class.std::locale" }
%"struct.std::ios_base::_Callback_list" = type { %"struct.std::ios_base::_Callback_list"*, void (i32, %"class.std::ios_base"*, i32)*, i32, i32 }
%"struct.std::ios_base::_Words" = type { i8*, i64 }
%"class.std::locale" = type { %"class.std::locale::_Impl"* }
%"class.std::locale::_Impl" = type { i32, %"class.std::locale::facet"**, i64, %"class.std::locale::facet"**, i8** }
%"class.std::locale::facet" = type <{ i32 (...)**, i32, [4 x i8] }>
%"class.std::basic_ostream" = type { i32 (...)**, %"class.std::basic_ios" }
%"class.std::basic_streambuf" = type { i32 (...)**, i8*, i8*, i8*, i8*, i8*, i8*, %"class.std::locale" }
%"class.std::ctype" = type <{ %"class.std::locale::facet.base", [4 x i8], %struct.__locale_struct*, i8, [7 x i8], i32*, i32*, i16*, i8, [256 x i8], [256 x i8], i8, [6 x i8] }>
%"class.std::locale::facet.base" = type <{ i32 (...)**, i32 }>
%struct.__locale_struct = type { [13 x %struct.__locale_data*], i16*, i32*, i32*, [13 x i8*] }
%struct.__locale_data = type opaque
%"class.std::num_put" = type { %"class.std::locale::facet.base", [4 x i8] }
%"class.std::num_get" = type { %"class.std::locale::facet.base", [4 x i8] }

@_ZStL8__ioinit = internal global %"class.std::ios_base::Init" zeroinitializer, align 1
@__dso_handle = external hidden global i8
@_ZSt3cin = external global %"class.std::basic_istream", align 8
@_ZSt4cout = external global %"class.std::basic_ostream", align 8
@.str = private unnamed_addr constant [2 x i8] c" \00", align 1
@llvm.global_ctors = appending global [1 x { i32, void ()*, i8* }] [{ i32, void ()*, i8* } { i32 65535, void ()* @_GLOBAL__sub_I_1087.cpp, i8* null }]

declare void @_ZNSt8ios_base4InitC1Ev(%"class.std::ios_base::Init"* nonnull align 1 dereferenceable(1)) unnamed_addr #0

; Function Attrs: nounwind
declare void @_ZNSt8ios_base4InitD1Ev(%"class.std::ios_base::Init"* nonnull align 1 dereferenceable(1)) unnamed_addr #1

; Function Attrs: nofree nounwind
declare i32 @__cxa_atexit(void (i8*)*, i8*, i8*) local_unnamed_addr #2

; Function Attrs: mustprogress norecurse sspstrong uwtable
define dso_local i32 @main() local_unnamed_addr #3 {
  %1 = alloca i32, align 4
  %2 = alloca [100 x i32], align 16
  %3 = bitcast i32* %1 to i8*
  call void @llvm.lifetime.start.p0i8(i64 4, i8* nonnull %3) #7
  store i32 0, i32* %1, align 4, !tbaa !5
  %4 = bitcast [100 x i32]* %2 to i8*
  call void @llvm.lifetime.start.p0i8(i64 400, i8* nonnull %4) #7
  %5 = call nonnull align 8 dereferenceable(16) %"class.std::basic_istream"* @_ZNSirsERi(%"class.std::basic_istream"* nonnull align 8 dereferenceable(16) @_ZSt3cin, i32* nonnull align 4 dereferenceable(4) %1)
  %6 = load i32, i32* %1, align 4, !tbaa !5
  %7 = icmp slt i32 %6, 1
  br i1 %7, label %83, label %12

8:                                                ; preds = %12
  %9 = icmp slt i32 %17, 1
  br i1 %9, label %83, label %10

10:                                               ; preds = %8
  %11 = getelementptr inbounds [100 x i32], [100 x i32]* %2, i64 0, i64 1
  br label %20

12:                                               ; preds = %0, %12
  %13 = phi i64 [ %16, %12 ], [ 1, %0 ]
  %14 = getelementptr inbounds [100 x i32], [100 x i32]* %2, i64 0, i64 %13
  %15 = call nonnull align 8 dereferenceable(16) %"class.std::basic_istream"* @_ZNSirsERi(%"class.std::basic_istream"* nonnull align 8 dereferenceable(16) @_ZSt3cin, i32* nonnull align 4 dereferenceable(4) %14)
  %16 = add nuw nsw i64 %13, 1
  %17 = load i32, i32* %1, align 4, !tbaa !5
  %18 = sext i32 %17 to i64
  %19 = icmp slt i64 %13, %18
  br i1 %19, label %12, label %8, !llvm.loop !9

20:                                               ; preds = %10, %69
  %21 = phi i32 [ 0, %10 ], [ %72, %69 ]
  %22 = phi i32 [ 1, %10 ], [ %70, %69 ]
  %23 = sub i32 %17, %21
  %24 = zext i32 %23 to i64
  %25 = add nsw i64 %24, -1
  %26 = icmp sgt i32 %17, %22
  br i1 %26, label %27, label %69

27:                                               ; preds = %20
  %28 = add nsw i64 %24, -2
  %29 = load i32, i32* %11, align 4, !tbaa !5
  %30 = and i64 %25, 3
  %31 = icmp ult i64 %28, 3
  br i1 %31, label %57, label %32

32:                                               ; preds = %27
  %33 = and i64 %25, -4
  br label %36

34:                                               ; preds = %69
  %35 = icmp sgt i32 %17, 1
  br i1 %35, label %73, label %83

36:                                               ; preds = %36, %32
  %37 = phi i64 [ 1, %32 ], [ %52, %36 ]
  %38 = phi i64 [ %33, %32 ], [ %55, %36 ]
  %39 = getelementptr inbounds [100 x i32], [100 x i32]* %2, i64 0, i64 %37
  %40 = add nuw nsw i64 %37, 1
  %41 = getelementptr inbounds [100 x i32], [100 x i32]* %2, i64 0, i64 %40
  %42 = load i32, i32* %41, align 4, !tbaa !5
  store i32 %42, i32* %39, align 4, !tbaa !5
  store i32 %29, i32* %41, align 4, !tbaa !5
  %43 = getelementptr inbounds [100 x i32], [100 x i32]* %2, i64 0, i64 %40
  %44 = add nuw nsw i64 %37, 2
  %45 = getelementptr inbounds [100 x i32], [100 x i32]* %2, i64 0, i64 %44
  %46 = load i32, i32* %45, align 4, !tbaa !5
  store i32 %46, i32* %43, align 4, !tbaa !5
  store i32 %29, i32* %45, align 4, !tbaa !5
  %47 = getelementptr inbounds [100 x i32], [100 x i32]* %2, i64 0, i64 %44
  %48 = add nuw nsw i64 %37, 3
  %49 = getelementptr inbounds [100 x i32], [100 x i32]* %2, i64 0, i64 %48
  %50 = load i32, i32* %49, align 4, !tbaa !5
  store i32 %50, i32* %47, align 4, !tbaa !5
  store i32 %29, i32* %49, align 4, !tbaa !5
  %51 = getelementptr inbounds [100 x i32], [100 x i32]* %2, i64 0, i64 %48
  %52 = add nuw nsw i64 %37, 4
  %53 = getelementptr inbounds [100 x i32], [100 x i32]* %2, i64 0, i64 %52
  %54 = load i32, i32* %53, align 4, !tbaa !5
  store i32 %54, i32* %51, align 4, !tbaa !5
  store i32 %29, i32* %53, align 4, !tbaa !5
  %55 = add i64 %38, -4
  %56 = icmp eq i64 %55, 0
  br i1 %56, label %57, label %36, !llvm.loop !11

57:                                               ; preds = %36, %27
  %58 = phi i64 [ 1, %27 ], [ %52, %36 ]
  %59 = icmp eq i64 %30, 0
  br i1 %59, label %69, label %60

60:                                               ; preds = %57, %60
  %61 = phi i64 [ %64, %60 ], [ %58, %57 ]
  %62 = phi i64 [ %67, %60 ], [ %30, %57 ]
  %63 = getelementptr inbounds [100 x i32], [100 x i32]* %2, i64 0, i64 %61
  %64 = add nuw nsw i64 %61, 1
  %65 = getelementptr inbounds [100 x i32], [100 x i32]* %2, i64 0, i64 %64
  %66 = load i32, i32* %65, align 4, !tbaa !5
  store i32 %66, i32* %63, align 4, !tbaa !5
  store i32 %29, i32* %65, align 4, !tbaa !5
  %67 = add i64 %62, -1
  %68 = icmp eq i64 %67, 0
  br i1 %68, label %69, label %60, !llvm.loop !12

69:                                               ; preds = %57, %60, %20
  %70 = add nuw i32 %22, 1
  %71 = icmp eq i32 %22, %17
  %72 = add i32 %21, 1
  br i1 %71, label %34, label %20, !llvm.loop !14

73:                                               ; preds = %34, %73
  %74 = phi i64 [ %79, %73 ], [ 1, %34 ]
  %75 = getelementptr inbounds [100 x i32], [100 x i32]* %2, i64 0, i64 %74
  %76 = load i32, i32* %75, align 4, !tbaa !5
  %77 = call nonnull align 8 dereferenceable(8) %"class.std::basic_ostream"* @_ZNSolsEi(%"class.std::basic_ostream"* nonnull align 8 dereferenceable(8) @_ZSt4cout, i32 %76)
  %78 = call nonnull align 8 dereferenceable(8) %"class.std::basic_ostream"* @_ZSt16__ostream_insertIcSt11char_traitsIcEERSt13basic_ostreamIT_T0_ES6_PKS3_l(%"class.std::basic_ostream"* nonnull align 8 dereferenceable(8) %77, i8* nonnull getelementptr inbounds ([2 x i8], [2 x i8]* @.str, i64 0, i64 0), i64 1)
  %79 = add nuw nsw i64 %74, 1
  %80 = load i32, i32* %1, align 4, !tbaa !5
  %81 = sext i32 %80 to i64
  %82 = icmp slt i64 %79, %81
  br i1 %82, label %73, label %83, !llvm.loop !15

83:                                               ; preds = %73, %34, %8, %0
  %84 = phi i32 [ %17, %34 ], [ %17, %8 ], [ %6, %0 ], [ %80, %73 ]
  %85 = sext i32 %84 to i64
  %86 = getelementptr inbounds [100 x i32], [100 x i32]* %2, i64 0, i64 %85
  %87 = load i32, i32* %86, align 4, !tbaa !5
  %88 = call nonnull align 8 dereferenceable(8) %"class.std::basic_ostream"* @_ZNSolsEi(%"class.std::basic_ostream"* nonnull align 8 dereferenceable(8) @_ZSt4cout, i32 %87)
  %89 = bitcast %"class.std::basic_ostream"* %88 to i8**
  %90 = load i8*, i8** %89, align 8, !tbaa !16
  %91 = getelementptr i8, i8* %90, i64 -24
  %92 = bitcast i8* %91 to i64*
  %93 = load i64, i64* %92, align 8
  %94 = bitcast %"class.std::basic_ostream"* %88 to i8*
  %95 = add nsw i64 %93, 240
  %96 = getelementptr inbounds i8, i8* %94, i64 %95
  %97 = bitcast i8* %96 to %"class.std::ctype"**
  %98 = load %"class.std::ctype"*, %"class.std::ctype"** %97, align 8, !tbaa !18
  %99 = icmp eq %"class.std::ctype"* %98, null
  br i1 %99, label %100, label %101

100:                                              ; preds = %83
  call void @_ZSt16__throw_bad_castv() #8
  unreachable

101:                                              ; preds = %83
  %102 = getelementptr inbounds %"class.std::ctype", %"class.std::ctype"* %98, i64 0, i32 8
  %103 = load i8, i8* %102, align 8, !tbaa !22
  %104 = icmp eq i8 %103, 0
  br i1 %104, label %108, label %105

105:                                              ; preds = %101
  %106 = getelementptr inbounds %"class.std::ctype", %"class.std::ctype"* %98, i64 0, i32 9, i64 10
  %107 = load i8, i8* %106, align 1, !tbaa !24
  br label %114

108:                                              ; preds = %101
  call void @_ZNKSt5ctypeIcE13_M_widen_initEv(%"class.std::ctype"* nonnull align 8 dereferenceable(570) %98)
  %109 = bitcast %"class.std::ctype"* %98 to i8 (%"class.std::ctype"*, i8)***
  %110 = load i8 (%"class.std::ctype"*, i8)**, i8 (%"class.std::ctype"*, i8)*** %109, align 8, !tbaa !16
  %111 = getelementptr inbounds i8 (%"class.std::ctype"*, i8)*, i8 (%"class.std::ctype"*, i8)** %110, i64 6
  %112 = load i8 (%"class.std::ctype"*, i8)*, i8 (%"class.std::ctype"*, i8)** %111, align 8
  %113 = call signext i8 %112(%"class.std::ctype"* nonnull align 8 dereferenceable(570) %98, i8 signext 10)
  br label %114

114:                                              ; preds = %105, %108
  %115 = phi i8 [ %107, %105 ], [ %113, %108 ]
  %116 = call nonnull align 8 dereferenceable(8) %"class.std::basic_ostream"* @_ZNSo3putEc(%"class.std::basic_ostream"* nonnull align 8 dereferenceable(8) %88, i8 signext %115)
  %117 = call nonnull align 8 dereferenceable(8) %"class.std::basic_ostream"* @_ZNSo5flushEv(%"class.std::basic_ostream"* nonnull align 8 dereferenceable(8) %116)
  call void @llvm.lifetime.end.p0i8(i64 400, i8* nonnull %4) #7
  call void @llvm.lifetime.end.p0i8(i64 4, i8* nonnull %3) #7
  ret i32 0
}

; Function Attrs: argmemonly mustprogress nofree nosync nounwind willreturn
declare void @llvm.lifetime.start.p0i8(i64 immarg, i8* nocapture) #4

declare nonnull align 8 dereferenceable(16) %"class.std::basic_istream"* @_ZNSirsERi(%"class.std::basic_istream"* nonnull align 8 dereferenceable(16), i32* nonnull align 4 dereferenceable(4)) local_unnamed_addr #0

declare nonnull align 8 dereferenceable(8) %"class.std::basic_ostream"* @_ZNSolsEi(%"class.std::basic_ostream"* nonnull align 8 dereferenceable(8), i32) local_unnamed_addr #0

; Function Attrs: argmemonly mustprogress nofree nosync nounwind willreturn
declare void @llvm.lifetime.end.p0i8(i64 immarg, i8* nocapture) #4

declare nonnull align 8 dereferenceable(8) %"class.std::basic_ostream"* @_ZSt16__ostream_insertIcSt11char_traitsIcEERSt13basic_ostreamIT_T0_ES6_PKS3_l(%"class.std::basic_ostream"* nonnull align 8 dereferenceable(8), i8*, i64) local_unnamed_addr #0

declare nonnull align 8 dereferenceable(8) %"class.std::basic_ostream"* @_ZNSo3putEc(%"class.std::basic_ostream"* nonnull align 8 dereferenceable(8), i8 signext) local_unnamed_addr #0

declare nonnull align 8 dereferenceable(8) %"class.std::basic_ostream"* @_ZNSo5flushEv(%"class.std::basic_ostream"* nonnull align 8 dereferenceable(8)) local_unnamed_addr #0

; Function Attrs: noreturn
declare void @_ZSt16__throw_bad_castv() local_unnamed_addr #5

declare void @_ZNKSt5ctypeIcE13_M_widen_initEv(%"class.std::ctype"* nonnull align 8 dereferenceable(570)) local_unnamed_addr #0

; Function Attrs: sspstrong uwtable
define internal void @_GLOBAL__sub_I_1087.cpp() #6 section ".text.startup" {
  tail call void @_ZNSt8ios_base4InitC1Ev(%"class.std::ios_base::Init"* nonnull align 1 dereferenceable(1) @_ZStL8__ioinit)
  %1 = tail call i32 @__cxa_atexit(void (i8*)* bitcast (void (%"class.std::ios_base::Init"*)* @_ZNSt8ios_base4InitD1Ev to void (i8*)*), i8* getelementptr inbounds (%"class.std::ios_base::Init", %"class.std::ios_base::Init"* @_ZStL8__ioinit, i64 0, i32 0), i8* nonnull @__dso_handle) #7
  ret void
}


!llvm.module.flags = !{!0, !1, !2, !3}
!llvm.ident = !{!4}

!0 = !{i32 1, !"wchar_size", i32 4}
!1 = !{i32 7, !"PIC Level", i32 2}
!2 = !{i32 7, !"PIE Level", i32 2}
!3 = !{i32 7, !"uwtable", i32 1}
!4 = !{!"clang version 13.0.0"}
!5 = !{!6, !6, i64 0}
!6 = !{!"int", !7, i64 0}
!7 = !{!"omnipotent char", !8, i64 0}
!8 = !{!"Simple C++ TBAA"}
!9 = distinct !{!9, !10}
!10 = !{!"llvm.loop.mustprogress"}
!11 = distinct !{!11, !10}
!12 = distinct !{!12, !13}
!13 = !{!"llvm.loop.unroll.disable"}
!14 = distinct !{!14, !10}
!15 = distinct !{!15, !10}
!16 = !{!17, !17, i64 0}
!17 = !{!"vtable pointer", !8, i64 0}
!18 = !{!19, !20, i64 240}
!19 = !{!"_ZTSSt9basic_iosIcSt11char_traitsIcEE", !20, i64 216, !7, i64 224, !21, i64 225, !20, i64 232, !20, i64 240, !20, i64 248, !20, i64 256}
!20 = !{!"any pointer", !7, i64 0}
!21 = !{!"bool", !7, i64 0}
!22 = !{!23, !7, i64 56}
!23 = !{!"_ZTSSt5ctypeIcE", !20, i64 16, !21, i64 24, !20, i64 32, !20, i64 40, !20, i64 48, !7, i64 56, !7, i64 57, !7, i64 313, !7, i64 569}
!24 = !{!7, !7, i64 0}
